; Function Attrs: mustprogress uwtable
define noundef i32 @_ZN6icu_7511NGramParser5parseEPNS_9InputTextE(ptr noundef nonnull align 8 dereferenceable(48) %this, ptr noundef %det) local_unnamed_addr #6 align 2 {
entry:
  %vtable = load ptr, ptr %this, align 8
  %vfn = getelementptr inbounds i8, ptr %vtable, i64 24
  %0 = load ptr, ptr %vfn, align 8
  tail call void %0(ptr noundef nonnull align 8 dereferenceable(48) %this, ptr noundef %det)
  %ngram.i = getelementptr inbounds i8, ptr %this, i64 8
  %1 = load i32, ptr %ngram.i, align 8
  %shl.i = shl i32 %1, 8
  %add.i = and i32 %shl.i, 16776960
  %and.i = or disjoint i32 %add.i, 32
  store i32 %and.i, ptr %ngram.i, align 8
  %ngramCount.i.i = getelementptr inbounds i8, ptr %this, i64 24
  %2 = load i32, ptr %ngramCount.i.i, align 8
  %add.i.i = add nsw i32 %2, 1
  store i32 %add.i.i, ptr %ngramCount.i.i, align 8
  %ngramList.i.i = getelementptr inbounds i8, ptr %this, i64 16
  %3 = load ptr, ptr %ngramList.i.i, align 8
  %arrayidx.i.i.i = getelementptr inbounds i8, ptr %3, i64 128
  %4 = load i32, ptr %arrayidx.i.i.i, align 4
  %cmp.not.i.i.i = icmp sgt i32 %4, %and.i
  %spec.select.i.i.i = select i1 %cmp.not.i.i.i, i32 0, i32 32
  %add3.i.i.i = or disjoint i32 %spec.select.i.i.i, 16
  %idxprom4.i.i.i = zext nneg i32 %add3.i.i.i to i64
  %arrayidx5.i.i.i = getelementptr inbounds i32, ptr %3, i64 %idxprom4.i.i.i
  %5 = load i32, ptr %arrayidx5.i.i.i, align 4
  %cmp6.not.i.i.i = icmp sgt i32 %5, %and.i
  %index.1.i.i.i = select i1 %cmp6.not.i.i.i, i32 %spec.select.i.i.i, i32 %add3.i.i.i
  %add10.i.i.i = or disjoint i32 %index.1.i.i.i, 8
  %idxprom11.i.i.i = zext nneg i32 %add10.i.i.i to i64
  %arrayidx12.i.i.i = getelementptr inbounds i32, ptr %3, i64 %idxprom11.i.i.i
  %6 = load i32, ptr %arrayidx12.i.i.i, align 4
  %cmp13.not.i.i.i = icmp sgt i32 %6, %and.i
  %index.2.i.i.i = select i1 %cmp13.not.i.i.i, i32 %index.1.i.i.i, i32 %add10.i.i.i
  %add17.i.i.i = or disjoint i32 %index.2.i.i.i, 4
  %idxprom18.i.i.i = zext nneg i32 %add17.i.i.i to i64
  %arrayidx19.i.i.i = getelementptr inbounds i32, ptr %3, i64 %idxprom18.i.i.i
  %7 = load i32, ptr %arrayidx19.i.i.i, align 4
  %cmp20.not.i.i.i = icmp sgt i32 %7, %and.i
  %index.3.i.i.i = select i1 %cmp20.not.i.i.i, i32 %index.2.i.i.i, i32 %add17.i.i.i
  %add24.i.i.i = add nuw nsw i32 %index.3.i.i.i, 2
  %idxprom25.i.i.i = zext nneg i32 %add24.i.i.i to i64
  %arrayidx26.i.i.i = getelementptr inbounds i32, ptr %3, i64 %idxprom25.i.i.i
  %8 = load i32, ptr %arrayidx26.i.i.i, align 4
  %cmp27.not.i.i.i = icmp sgt i32 %8, %and.i
  %index.4.i.i.i = select i1 %cmp27.not.i.i.i, i32 %index.3.i.i.i, i32 %add24.i.i.i
  %add31.i.i.i = add nuw nsw i32 %index.4.i.i.i, 1
  %idxprom32.i.i.i = zext nneg i32 %add31.i.i.i to i64
  %arrayidx33.i.i.i = getelementptr inbounds i32, ptr %3, i64 %idxprom32.i.i.i
  %9 = load i32, ptr %arrayidx33.i.i.i, align 4
  %cmp34.not.i.i.i = icmp sgt i32 %9, %and.i
  %index.5.i.i.i = select i1 %cmp34.not.i.i.i, i32 %index.4.i.i.i, i32 %add31.i.i.i
  %idxprom38.i.i.i = zext nneg i32 %index.5.i.i.i to i64
  %arrayidx39.i.i.i = getelementptr inbounds i32, ptr %3, i64 %idxprom38.i.i.i
  %10 = load i32, ptr %arrayidx39.i.i.i, align 4
  %cmp40.i.i.i = icmp sgt i32 %10, %and.i
  %sub.i.i.i = sext i1 %cmp40.i.i.i to i32
  %index.6.i.i.i = add nsw i32 %index.5.i.i.i, %sub.i.i.i
  %cmp43.i.i.i = icmp slt i32 %index.6.i.i.i, 0
  br i1 %cmp43.i.i.i, label %_ZN6icu_7511NGramParser7addByteEi.exit, label %lor.lhs.false.i.i.i

lor.lhs.false.i.i.i:                              ; preds = %entry
  %idxprom44.i.i.i = zext nneg i32 %index.6.i.i.i to i64
  %arrayidx45.i.i.i = getelementptr inbounds i32, ptr %3, i64 %idxprom44.i.i.i
  %11 = load i32, ptr %arrayidx45.i.i.i, align 4
  %cmp46.not.i.i.i = icmp eq i32 %11, %and.i
  br i1 %cmp46.not.i.i.i, label %if.then.i.i, label %_ZN6icu_7511NGramParser7addByteEi.exit

if.then.i.i:                                      ; preds = %lor.lhs.false.i.i.i
  %hitCount.i.i = getelementptr inbounds i8, ptr %this, i64 28
  %12 = load i32, ptr %hitCount.i.i, align 4
  %add2.i.i = add nsw i32 %12, 1
  store i32 %add2.i.i, ptr %hitCount.i.i, align 4
  br label %_ZN6icu_7511NGramParser7addByteEi.exit

_ZN6icu_7511NGramParser7addByteEi.exit:           ; preds = %entry, %lor.lhs.false.i.i.i, %if.then.i.i
  %hitCount = getelementptr inbounds i8, ptr %this, i64 28
  %13 = load i32, ptr %hitCount, align 4
  %conv = sitofp i32 %13 to double
  %conv2 = sitofp i32 %add.i.i to double
  %div = fdiv double %conv, %conv2
  %cmp = fcmp ogt double %div, 3.300000e-01
  %mul = fmul double %div, 3.000000e+02
  %conv3 = fptosi double %mul to i32
  %retval.0 = select i1 %cmp, i32 98, i32 %conv3
  ret i32 %retval.0
}